target datalayout = "e-m:e-p270:32:32-p271:32:32-p272:64:64-i64:64-i128:128-f80:128-n8:16:32:64-S128"
target triple = "x86_64-pc-linux-gnu"

%struct.slabclass_t = type { i32, i32, ptr, i32, i32, ptr, i32 }
%union.pthread_mutex_t = type { %struct.__pthread_mutex_s }
%struct.__pthread_mutex_s = type { i32, i32, i32, i32, i32, i16, i16, %struct.__pthread_internal_list }
%struct.__pthread_internal_list = type { ptr, ptr }

@slabclass = internal global [64 x %struct.slabclass_t] zeroinitializer, align 16
@power_largest = internal global i32 0, align 4
@slabs_lock = internal global %union.pthread_mutex_t zeroinitializer, align 8

; Function Attrs: nounwind uwtable
define dso_local ptr @slabs_peek_page(i32 noundef %0, ptr noundef %1, ptr noundef %2) #0 {
  %4 = alloca ptr, align 8
  %5 = alloca i32, align 4
  %6 = alloca ptr, align 8
  %7 = alloca ptr, align 8
  %8 = alloca ptr, align 8
  %9 = alloca ptr, align 8
  %10 = alloca i32, align 4
  store i32 %0, ptr %5, align 4, !tbaa !8
  store ptr %1, ptr %6, align 8, !tbaa !35
  store ptr %2, ptr %7, align 8, !tbaa !35
  call void @llvm.lifetime.start.p0(i64 8, ptr %8) #9
  call void @llvm.lifetime.start.p0(i64 8, ptr %9) #9
  store ptr null, ptr %9, align 8, !tbaa !25
  %11 = load i32, ptr %5, align 4, !tbaa !8
  %12 = load i32, ptr @power_largest, align 4, !tbaa !8
  %13 = icmp ugt i32 %11, %12
  br i1 %13, label %14, label %15

14:                                               ; preds = %3
  store ptr null, ptr %4, align 8
  store i32 1, ptr %10, align 4
  br label %42

15:                                               ; preds = %3
  %16 = call i32 @pthread_mutex_lock(ptr noundef @slabs_lock) #9
  %17 = load i32, ptr %5, align 4, !tbaa !8
  %18 = zext i32 %17 to i64
  %19 = getelementptr inbounds nuw [64 x %struct.slabclass_t], ptr @slabclass, i64 0, i64 %18
  store ptr %19, ptr %8, align 8, !tbaa !25
  %20 = load ptr, ptr %8, align 8, !tbaa !25
  %21 = getelementptr inbounds nuw %struct.slabclass_t, ptr %20, i32 0, i32 4
  %22 = load i32, ptr %21, align 4, !tbaa !27
  %23 = icmp ult i32 %22, 2
  br i1 %23, label %24, label %26

24:                                               ; preds = %15
  %25 = call i32 @pthread_mutex_unlock(ptr noundef @slabs_lock) #9
  store ptr null, ptr %4, align 8
  store i32 1, ptr %10, align 4
  br label %42

26:                                               ; preds = %15
  %27 = load ptr, ptr %8, align 8, !tbaa !25
  %28 = getelementptr inbounds nuw %struct.slabclass_t, ptr %27, i32 0, i32 0
  %29 = load i32, ptr %28, align 8, !tbaa !17
  %30 = load ptr, ptr %6, align 8, !tbaa !35
  store i32 %29, ptr %30, align 4, !tbaa !8
  %31 = load ptr, ptr %8, align 8, !tbaa !25
  %32 = getelementptr inbounds nuw %struct.slabclass_t, ptr %31, i32 0, i32 1
  %33 = load i32, ptr %32, align 4, !tbaa !44
  %34 = load ptr, ptr %7, align 8, !tbaa !35
  store i32 %33, ptr %34, align 4, !tbaa !8
  %35 = load ptr, ptr %8, align 8, !tbaa !25
  %36 = getelementptr inbounds nuw %struct.slabclass_t, ptr %35, i32 0, i32 5
  %37 = load ptr, ptr %36, align 8, !tbaa !26
  %38 = getelementptr inbounds ptr, ptr %37, i64 0
  %39 = load ptr, ptr %38, align 8, !tbaa !25
  store ptr %39, ptr %9, align 8, !tbaa !25
  %40 = call i32 @pthread_mutex_unlock(ptr noundef @slabs_lock) #9
  %41 = load ptr, ptr %9, align 8, !tbaa !25
  store ptr %41, ptr %4, align 8
  store i32 1, ptr %10, align 4
  br label %42

42:                                               ; preds = %26, %24, %14
  call void @llvm.lifetime.end.p0(i64 8, ptr %9) #9
  call void @llvm.lifetime.end.p0(i64 8, ptr %8) #9
  %43 = load ptr, ptr %4, align 8
  ret ptr %43
}