; Function Attrs: nounwind uwtable
define dso_local ptr @slabs_peek_page(i32 noundef %0, ptr noundef writeonly captures(none) %1, ptr noundef writeonly captures(none) %2) local_unnamed_addr #4 {
  %4 = load i32, ptr @power_largest, align 4, !tbaa !17
  %5 = icmp ugt i32 %0, %4
  br i1 %5, label %21, label %6

6:                                                ; preds = %3
  %7 = tail call i32 @pthread_mutex_lock(ptr noundef nonnull @slabs_lock) #21
  %8 = zext i32 %0 to i64
  %9 = getelementptr inbounds nuw [64 x %struct.slabclass_t], ptr @slabclass, i64 0, i64 %8
  %10 = getelementptr inbounds nuw i8, ptr %9, i64 20
  %11 = load i32, ptr %10, align 4, !tbaa !13
  %12 = icmp ult i32 %11, 2
  br i1 %12, label %.sink.split, label %13

13:                                               ; preds = %6
  %14 = load i32, ptr %9, align 8, !tbaa !4
  store i32 %14, ptr %1, align 4, !tbaa !17
  %15 = getelementptr inbounds nuw i8, ptr %9, i64 4
  %16 = load i32, ptr %15, align 4, !tbaa !38
  store i32 %16, ptr %2, align 4, !tbaa !17
  %17 = getelementptr inbounds nuw i8, ptr %9, i64 24
  %18 = load ptr, ptr %17, align 8, !tbaa !15
  %19 = load ptr, ptr %18, align 8, !tbaa !16
  br label %.sink.split

.sink.split:                                      ; preds = %6, %13
  %.0.ph = phi ptr [ %19, %13 ], [ null, %6 ]
  %20 = tail call i32 @pthread_mutex_unlock(ptr noundef nonnull @slabs_lock) #21
  br label %21

21:                                               ; preds = %.sink.split, %3
  %.0 = phi ptr [ null, %3 ], [ %.0.ph, %.sink.split ]
  ret ptr %.0
}